target datalayout = "e-m:e-p270:32:32-p271:32:32-p272:64:64-i64:64-i128:128-f80:128-n8:16:32:64-S128"
target triple = "x86_64-pc-linux-gnu"

%struct.grpc_arg = type { i32, ptr, %"union.(anonymous struct)::grpc_arg_value" }
%"union.(anonymous struct)::grpc_arg_value" = type { %"struct.(anonymous struct)::grpc_arg_value::grpc_arg_pointer" }
%"struct.(anonymous struct)::grpc_arg_value::grpc_arg_pointer" = type { ptr, ptr }
%struct.grpc_channel_args = type { i64, ptr }

; Function Attrs: mustprogress uwtable
define noundef ptr @_Z37grpc_channel_credentials_find_in_argsPK17grpc_channel_args(ptr noundef %0) #4 {
  %2 = alloca ptr, align 8
  %3 = alloca ptr, align 8
  %4 = alloca i64, align 8
  %5 = alloca i32, align 4
  %6 = alloca ptr, align 8
  store ptr %0, ptr %3, align 8, !tbaa !52
  call void @llvm.lifetime.start.p0(i64 8, ptr %4) #3
  %7 = load ptr, ptr %3, align 8, !tbaa !52
  %8 = icmp eq ptr %7, null
  br i1 %8, label %9, label %10

9:                                                ; preds = %1
  store ptr null, ptr %2, align 8
  store i32 1, ptr %5, align 4
  br label %36

10:                                               ; preds = %1
  store i64 0, ptr %4, align 8, !tbaa !49
  br label %11

11:                                               ; preds = %32, %10
  %12 = load i64, ptr %4, align 8, !tbaa !49
  %13 = load ptr, ptr %3, align 8, !tbaa !52
  %14 = getelementptr inbounds nuw %struct.grpc_channel_args, ptr %13, i32 0, i32 0
  %15 = load i64, ptr %14, align 8, !tbaa !59
  %16 = icmp ult i64 %12, %15
  br i1 %16, label %17, label %35

17:                                               ; preds = %11
  call void @llvm.lifetime.start.p0(i64 8, ptr %6) #3
  %18 = load ptr, ptr %3, align 8, !tbaa !52
  %19 = getelementptr inbounds nuw %struct.grpc_channel_args, ptr %18, i32 0, i32 1
  %20 = load ptr, ptr %19, align 8, !tbaa !61
  %21 = load i64, ptr %4, align 8, !tbaa !49
  %22 = getelementptr inbounds nuw %struct.grpc_arg, ptr %20, i64 %21
  %23 = call noundef ptr @_Z33grpc_channel_credentials_from_argPK8grpc_arg(ptr noundef %22)
  store ptr %23, ptr %6, align 8, !tbaa !3
  %24 = load ptr, ptr %6, align 8, !tbaa !3
  %25 = icmp ne ptr %24, null
  br i1 %25, label %26, label %28

26:                                               ; preds = %17
  %27 = load ptr, ptr %6, align 8, !tbaa !3
  store ptr %27, ptr %2, align 8
  store i32 1, ptr %5, align 4
  br label %29

28:                                               ; preds = %17
  store i32 0, ptr %5, align 4
  br label %29

29:                                               ; preds = %28, %26
  call void @llvm.lifetime.end.p0(i64 8, ptr %6) #3
  %30 = load i32, ptr %5, align 4
  switch i32 %30, label %36 [
    i32 0, label %31
  ]

31:                                               ; preds = %29
  br label %32

32:                                               ; preds = %31
  %33 = load i64, ptr %4, align 8, !tbaa !49
  %34 = add i64 %33, 1
  store i64 %34, ptr %4, align 8, !tbaa !49
  br label %11, !llvm.loop !62

35:                                               ; preds = %11
  store ptr null, ptr %2, align 8
  store i32 1, ptr %5, align 4
  br label %36

36:                                               ; preds = %35, %29, %9
  call void @llvm.lifetime.end.p0(i64 8, ptr %4) #3
  %37 = load ptr, ptr %2, align 8
  ret ptr %37
}