; Function Attrs: mustprogress uwtable
define noundef ptr @_Z37grpc_channel_credentials_find_in_argsPK17grpc_channel_args(ptr noundef readonly %0) local_unnamed_addr #9 {
  %2 = icmp eq ptr %0, null
  br i1 %2, label %.loopexit, label %.preheader

.preheader:                                       ; preds = %1
  %3 = getelementptr inbounds nuw i8, ptr %0, i64 8
  %4 = load i64, ptr %0, align 8, !tbaa !46
  %.not16 = icmp eq i64 %4, 0
  br i1 %.not16, label %.loopexit, label %.lr.ph

5:                                                ; preds = %.lr.ph
  %6 = add nuw i64 %.01013, 1
  %7 = load i64, ptr %0, align 8, !tbaa !46
  %8 = icmp ult i64 %6, %7
  br i1 %8, label %.lr.ph, label %.loopexit, !llvm.loop !48

.lr.ph:                                           ; preds = %.preheader, %5
  %.01013 = phi i64 [ %6, %5 ], [ 0, %.preheader ]
  %9 = load ptr, ptr %3, align 8, !tbaa !50
  %10 = getelementptr inbounds nuw %struct.grpc_arg, ptr %9, i64 %.01013
  %11 = tail call noundef ptr @_Z33grpc_channel_credentials_from_argPK8grpc_arg(ptr noundef %10)
  %.not = icmp eq ptr %11, null
  br i1 %.not, label %5, label %.loopexit

.loopexit:                                        ; preds = %.lr.ph, %5, %.preheader, %1
  %.0 = phi ptr [ null, %1 ], [ null, %.preheader ], [ %11, %.lr.ph ], [ null, %5 ]
  ret ptr %.0
}